; Function Attrs: nounwind sspstrong uwtable
define dso_local noundef zeroext i1 @block_job_has_bdrv(ptr noundef readonly captures(none) %0, ptr noundef readnone captures(address) %1) local_unnamed_addr #0 {
  %3 = tail call zeroext i1 @qemu_in_main_thread() #8
  br i1 %3, label %5, label %4

4:                                                ; preds = %2
  tail call void @__assert_fail(ptr noundef nonnull @.str, ptr noundef nonnull @.str.1, i32 noundef 219, ptr noundef nonnull @__PRETTY_FUNCTION__.block_job_has_bdrv) #9
  unreachable

5:                                                ; preds = %2
  %6 = getelementptr inbounds nuw i8, ptr %0, i64 512
  %.0810 = load ptr, ptr %6, align 8
  %.not11.not = icmp eq ptr %.0810, null
  br i1 %.not11.not, label %._crit_edge, label %.lr.ph

7:                                                ; preds = %.lr.ph
  %8 = getelementptr inbounds nuw i8, ptr %.0812, i64 8
  %.08 = load ptr, ptr %8, align 8
  %.not.not = icmp eq ptr %.08, null
  br i1 %.not.not, label %._crit_edge, label %.lr.ph, !llvm.loop !7

.lr.ph:                                           ; preds = %5, %7
  %.0812 = phi ptr [ %.08, %7 ], [ %.0810, %5 ]
  %9 = load ptr, ptr %.0812, align 8
  %10 = load ptr, ptr %9, align 8
  %.not9 = icmp eq ptr %10, %1
  br i1 %.not9, label %._crit_edge, label %7

._crit_edge:                                      ; preds = %.lr.ph, %7, %5
  %.not.lcssa = phi i1 [ false, %5 ], [ %.not9, %7 ], [ %.not9, %.lr.ph ]
  ret i1 %.not.lcssa
}